; Function Attrs: mustprogress nofree norecurse nosync nounwind willreturn memory(argmem: write) uwtable
define hidden range(i32 -20352, 1) i32 @mbedtls_ecjpake_set_point_format(ptr noundef writeonly captures(none) %0, i32 noundef %1) local_unnamed_addr #3 {
  %switch = icmp ult i32 %1, 2
  br i1 %switch, label %3, label %5

3:                                                ; preds = %2
  %4 = getelementptr inbounds nuw i8, ptr %0, i64 204
  store i32 %1, ptr %4, align 4, !tbaa !16
  br label %5

5:                                                ; preds = %2, %3
  %.0 = phi i32 [ 0, %3 ], [ -20352, %2 ]
  ret i32 %.0
}